-----BEGIN CERTIFICATE-----
MIIFWTCCA0ECFFGI/XH5m4TXcLToRREsv2+iSkhyMA0GCSqGSIb3DQEBCwUAMGkx
CzAJBgNVBAYTAlVTMQswCQYDVQQIDAJNRDEPMA0GA1UEBwwGTGF1cmVsMQ4wDAYD
VQQKDAVDaXNjbzEOMAwGA1UECwwFVGFsb3MxHDAaBgNVBAMME0NsYW1BViBCRVRB
IFJvb3QgQ0EwHhcNMjUwMzI2MjEzMTU2WhcNMjcwMzI2MjEzMTU2WjBpMQswCQYD
VQQGEwJVUzELMAkGA1UECAwCTUQxDzANBgNVBAcMBkxhdXJlbDEOMAwGA1UECgwF
Q2lzY28xDjAMBgNVBAsMBVRhbG9zMRwwGgYDVQQDDBNDbGFtQVYgQkVUQSBSb290
IENBMIICIjANBgkqhkiG9w0BAQEFAAOCAg8AMIICCgKCAgEA8/tWT27KPBSFb7ER
c9jqJEhGXA0NNa/RBT5cumFsTm0253BXAJmIZa9EJTCyPuetGjQNKtOQ66VheL2D
2oyB3M7UIs1GP1epFu32eLDNzxPio6VV/Oge8Q7DVOsXtymS9jLNGmCAJ2gj+WuG
etV7laHuSFG02uwhef3yvfuvI4odRwEhSXiUt3J52siTnsetc9VLw6C4tAdtigBA
1oNx0pubPxAIXYNQeUeAZ8IyaUY+xtW/ekte8wFf4vbXXif1Fc4qA/tG0yGSIT2y
0SNrB1Wl0XTWQ63BStqY/Gqyyvr7BcZcPIcUIbIpmHFeYdp7WKfggQaOs3F5Fjvz
D17ZVRNkKCz0c3sLAQAOcB4gDHdbhNCQwY/w51ZkwYj1WdVeOsVLCq+itDD0lSiT
zrrchQbP3dytQTIiTX3V413QVPv7Tc6sZZELA3CiOTgrPj5TGWPVmhzCXOnllGZB
2gloHz8kxU1Uh/XzT8Qgi3CSZK0kweunIRYLmHGhdPcGeELK1SdJt7InFWzoUPLS
+sWJ+7/hqz5qeNJjTQTOZ+QYxvVlSU+fpUr2ovN4lVwzlr9jBZMb+vIlP7nhNpx3
8JL+ARc9E8k1vnxMA5YN1cDvkebi236vazXnoNunGhk4oHuBGXPvLzM1IGFbh3qC
bV9q343HnKa8PjouGY32+7gW1QUCAwEAATANBgkqhkiG9w0BAQsFAAOCAgEAxw7M
RwgCrnebt9yEUmzE+/Z1UHl+MZsLUiyoraQXgx/gtJeD34H+MMIivxt/j260aser
/nPF0WQ7up6WuQ6tEdU0KPH18g4cCL8H8p/SFYSw0u02NB1d69NUvhR7TLwS1yKQ
AdiQH5Vw7y18rZKGoMiEvKPDnfkTwQY9EAdAcFxjwlWroB437MFmXe7wz3uQdB+i
A5g6lKtkvYcUQddIKfCsNVzRN2q4BjQq2EdwUSC+Z12baaTAx+BUSppvvhD7t9Fa
CNDAJkaVGFvo8CnuOkNCgDMnXLMP95HhwTzRLJIEfGu8uDKRe0yJfBnNAZyHiUdf
qNhtkjfdnNT2ZzHaRuAbc+6bm8NAzPH9dkdg5RxTvdAEZfRzMythLso47PX94mlt
7SjZnIvArJt4TjoQ5K6JnX9CmEJeXBuVbNfiCnu11MitrfVV8BWpBh4gIP5x4kM4
qyFle7x2jDaC9Nc14QpOsNcmFI0i8itXwqKTaqnX4r05w0IIHu6RbgzXyJLSGMi0
Bd/OoRMlH6aAxOD3W8PR18TkR7wt5++qMEC+hvpTIBfqDzM6q/l1Gv1/xzKtDiFL
9ZmIM79osXAOPMn/dNAh4hVURBl2n7/69FSRzQbVIBGt2YYlWV9HVfOXquuYJ3py
pOQCrNNrFjEMFifHqO2ktkn7c8Tsw4dFVnIhKFU=
-----END CERTIFICATE-----
Certificate:
    Data:
        Version: 3 (0x2)
        Serial Number: 0 (0x0)
        Signature Algorithm: sha256WithRSAEncryption
        Issuer: C=US, ST=MD, L=Laurel, O=Cisco, OU=Talos, CN=ClamAV BETA Root CA
        Validity
            Not Before: Mar 26 21:31:56 2025 GMT
            Not After : Jul 24 21:31:56 2025 GMT
        Subject: C=US, ST=MD, O=Cisco, OU=Talos, CN=ClamAV BETA Intermediate Signing CA
        Subject Public Key Info:
            Public Key Algorithm: rsaEncryption
                RSA Public-Key: (4096 bit)
                Modulus:
                    00:a1:6b:6a:b0:76:70:35:e1:d3:e5:49:1d:3f:e0:
                    2c:1f:f3:bd:38:cb:cb:7b:ec:e3:f3:20:27:1c:99:
                    1e:99:89:d0:f4:11:ef:b2:18:6c:1b:25:40:55:18:
                    b0:c4:e8:03:0a:64:30:11:fa:b2:2b:6f:cb:2b:b8:
                    aa:0c:29:36:77:6f:cf:12:35:67:14:e9:02:65:ad:
                    6e:fb:fa:f9:b3:a2:9c:1b:d8:90:70:15:10:d0:29:
                    2b:9f:49:6b:dc:75:fb:34:36:e8:cf:22:10:03:8d:
                    7e:97:2c:c6:9c:be:29:33:b8:6b:b8:54:92:a0:28:
                    92:a0:0c:ef:46:a6:0f:94:7a:c4:51:ef:a9:93:0f:
                    46:43:63:1d:36:f8:51:4c:be:8f:89:06:a9:05:6f:
                    e2:40:a9:b4:e3:69:d5:20:48:2d:b0:d8:2b:25:b1:
                    af:08:3b:a8:a6:18:84:0c:05:54:2d:40:a0:e1:bf:
                    af:18:22:2d:87:69:83:89:6d:cf:d3:5f:2b:01:7d:
                    d4:4e:db:2c:80:b2:77:25:5f:55:e1:d4:d4:fe:ad:
                    7a:7c:2b:b3:ef:32:73:aa:f7:f2:43:4e:ae:d3:25:
                    69:57:c8:0b:cf:8c:bd:33:d9:05:87:9d:7b:09:e2:
                    59:3f:01:d2:54:af:c4:8a:97:d7:4b:ce:d9:ad:15:
                    6f:21:8a:e2:24:27:03:60:2e:6d:1d:dd:be:eb:77:
                    a3:4d:ac:d6:01:4a:d4:ec:86:b7:b6:9d:02:3d:2a:
                    7f:e0:5f:02:0f:58:d1:0b:cb:7b:e2:ff:e9:f3:5d:
                    0f:6f:d1:12:77:5f:80:e7:96:67:dd:d7:13:2e:3c:
                    cf:b7:d6:36:33:55:6e:e4:f8:67:08:bb:ed:9a:61:
                    44:27:b0:e2:11:0a:b9:3f:fd:a5:2b:96:e4:7f:5e:
                    60:c6:7d:8c:d6:19:64:79:ff:02:98:eb:53:db:35:
                    9f:ac:a7:02:51:92:85:37:9a:23:1e:f3:c4:b6:cb:
                    0b:7d:65:ed:50:10:94:47:0d:cc:2a:34:a7:65:fd:
                    de:c0:c1:01:ac:e9:4f:c2:02:2d:b2:eb:c5:f8:e6:
                    db:cd:aa:87:91:63:94:40:5e:00:0b:f1:08:07:04:
                    85:79:ce:c8:43:cf:c9:af:66:31:20:e7:58:bf:dd:
                    6b:cb:d4:a4:89:e2:c0:11:15:02:ca:80:cc:97:2a:
                    36:f6:7f:9c:78:f2:5c:35:70:c9:58:6f:95:91:25:
                    88:e3:d7:da:c0:0f:b8:cd:5e:2e:9f:67:d2:14:74:
                    c7:31:09:91:87:0d:97:9f:30:f3:72:1c:ac:98:c1:
                    da:f2:b3:8d:9e:36:21:cb:e8:d9:53:4f:98:2e:d8:
                    ad:44:af
                Exponent: 65537 (0x10001)
        X509v3 extensions:
            X509v3 Basic Constraints: critical
                CA:TRUE
            X509v3 Key Usage: critical
                Certificate Sign, CRL Sign
            X509v3 Extended Key Usage: 
                OCSP Signing, E-mail Protection
            Netscape Cert Type: 
                SSL CA
    Signature Algorithm: sha256WithRSAEncryption
         4c:8c:2d:f9:22:a4:de:f6:91:30:8e:50:ad:1b:1c:f8:f1:e0:
         e5:93:7b:57:1c:75:b4:e1:3b:f1:43:12:c1:af:5a:00:c4:a1:
         5b:6e:9b:07:74:83:68:01:7c:d4:44:25:41:30:34:7d:79:59:
         f4:ac:df:4a:44:1c:f0:a2:e2:ac:1d:60:b5:83:48:55:a8:45:
         66:31:43:9d:2a:0c:df:0e:06:5e:e5:e1:1d:d7:99:2d:33:60:
         2f:f2:39:f0:3c:1f:c3:a8:ff:85:34:75:dd:27:35:d2:a2:f3:
         36:bc:17:80:ce:60:89:29:66:0c:ee:8e:1d:82:df:a6:33:2b:
         47:a9:fc:2a:e3:82:b2:07:e2:8a:3a:df:ed:3c:4e:61:d5:c3:
         f8:df:d2:d3:c6:f4:d7:b9:a7:71:32:bf:42:e9:d2:99:25:ef:
         0d:8d:7e:0f:2c:17:2b:b2:c6:e0:31:7f:06:85:af:ae:52:e9:
         b3:4c:06:7f:1a:9d:ee:21:f2:e1:53:94:73:cd:7c:96:5d:c0:
         b7:1a:55:55:72:c8:13:4f:b0:c6:ca:6a:46:75:aa:f9:1c:9d:
         74:94:d5:87:50:39:36:4a:41:eb:4e:78:c9:b6:9d:ce:ef:68:
         57:76:e6:89:a6:82:b9:eb:69:84:8e:24:e2:62:6d:3f:4d:02:
         ea:2a:5d:cf:a0:74:6a:0a:0c:b5:31:5c:54:61:96:86:c9:07:
         c0:f4:b5:e0:66:25:63:28:9e:3e:ec:63:a6:04:aa:03:dd:30:
         40:7f:74:e5:8c:55:79:1f:41:6d:52:72:ce:92:ed:9a:13:ae:
         30:68:80:04:86:5d:bb:42:e3:f6:63:20:e2:86:f5:72:78:30:
         34:91:58:35:1d:db:68:02:7a:61:de:61:73:e2:5e:df:96:c7:
         5a:02:13:8f:66:df:9d:05:99:71:e9:ef:6d:a9:cf:28:83:40:
         8e:48:d3:8f:6a:37:b5:f0:a6:13:63:28:76:8d:3f:3d:35:94:
         d8:ef:3a:15:bc:ac:5c:63:0a:ae:60:fa:78:6f:1e:67:0d:7d:
         22:b4:60:3d:95:10:93:5a:49:ee:30:58:81:e3:5c:07:65:46:
         b2:02:76:32:6c:2e:2c:79:0c:f7:d9:c1:4f:5a:e4:20:53:08:
         d7:68:79:36:a8:59:e2:ce:7a:8f:50:32:20:a7:b6:6a:ba:33:
         55:b6:bd:a6:e8:91:c3:36:b1:3b:ab:1f:ee:d7:d4:d4:dd:28:
         98:53:d5:18:f7:44:dd:e8:dd:61:88:20:39:9e:1c:53:ab:6c:
         92:2b:7c:08:6a:8f:98:8b:9d:33:ac:12:b1:c6:ba:7b:45:57:
         a0:9d:9b:0c:46:a1:22:e1
-----BEGIN CERTIFICATE-----
MIIFoTCCA4mgAwIBAgIBADANBgkqhkiG9w0BAQsFADBpMQswCQYDVQQGEwJVUzEL
MAkGA1UECAwCTUQxDzANBgNVBAcMBkxhdXJlbDEOMAwGA1UECgwFQ2lzY28xDjAM
BgNVBAsMBVRhbG9zMRwwGgYDVQQDDBNDbGFtQVYgQkVUQSBSb290IENBMB4XDTI1
MDMyNjIxMzE1NloXDTI1MDcyNDIxMzE1NlowaDELMAkGA1UEBhMCVVMxCzAJBgNV
BAgMAk1EMQ4wDAYDVQQKDAVDaXNjbzEOMAwGA1UECwwFVGFsb3MxLDAqBgNVBAMM
I0NsYW1BViBCRVRBIEludGVybWVkaWF0ZSBTaWduaW5nIENBMIICIjANBgkqhkiG
9w0BAQEFAAOCAg8AMIICCgKCAgEAoWtqsHZwNeHT5UkdP+AsH/O9OMvLe+zj8yAn
HJkemYnQ9BHvshhsGyVAVRiwxOgDCmQwEfqyK2/LK7iqDCk2d2/PEjVnFOkCZa1u
+/r5s6KcG9iQcBUQ0Ckrn0lr3HX7NDbozyIQA41+lyzGnL4pM7hruFSSoCiSoAzv
RqYPlHrEUe+pkw9GQ2MdNvhRTL6PiQapBW/iQKm042nVIEgtsNgrJbGvCDuophiE
DAVULUCg4b+vGCIth2mDiW3P018rAX3UTtssgLJ3JV9V4dTU/q16fCuz7zJzqvfy
Q06u0yVpV8gLz4y9M9kFh517CeJZPwHSVK/EipfXS87ZrRVvIYriJCcDYC5tHd2+
63ejTazWAUrU7Ia3tp0CPSp/4F8CD1jRC8t74v/p810Pb9ESd1+A55Zn3dcTLjzP
t9Y2M1Vu5PhnCLvtmmFEJ7DiEQq5P/2lK5bkf15gxn2M1hlkef8CmOtT2zWfrKcC
UZKFN5ojHvPEtssLfWXtUBCURw3MKjSnZf3ewMEBrOlPwgItsuvF+ObbzaqHkWOU
QF4AC/EIBwSFec7IQ8/Jr2YxIOdYv91ry9SkieLAERUCyoDMlyo29n+cePJcNXDJ
WG+VkSWI49fawA+4zV4un2fSFHTHMQmRhw2XnzDzchysmMHa8rONnjYhy+jZU0+Y
LtitRK8CAwEAAaNVMFMwDwYDVR0TAQH/BAUwAwEB/zAOBgNVHQ8BAf8EBAMCAQYw
HQYDVR0lBBYwFAYIKwYBBQUHAwkGCCsGAQUFBwMEMBEGCWCGSAGG+EIBAQQEAwIC
BDANBgkqhkiG9w0BAQsFAAOCAgEATIwt+SKk3vaRMI5QrRsc+PHg5ZN7Vxx1tOE7
8UMSwa9aAMShW26bB3SDaAF81EQlQTA0fXlZ9KzfSkQc8KLirB1gtYNIVahFZjFD
nSoM3w4GXuXhHdeZLTNgL/I58Dwfw6j/hTR13Sc10qLzNrwXgM5giSlmDO6OHYLf
pjMrR6n8KuOCsgfiijrf7TxOYdXD+N/S08b017mncTK/QunSmSXvDY1+DywXK7LG
4DF/BoWvrlLps0wGfxqd7iHy4VOUc818ll3AtxpVVXLIE0+wxspqRnWq+RyddJTV
h1A5NkpB6054ybadzu9oV3bmiaaCuetphI4k4mJtP00C6ipdz6B0agoMtTFcVGGW
hskHwPS14GYlYyiePuxjpgSqA90wQH905YxVeR9BbVJyzpLtmhOuMGiABIZdu0Lj
9mMg4ob1cngwNJFYNR3baAJ6Yd5hc+Je35bHWgITj2bfnQWZcenvbanPKINAjkjT
j2o3tfCmE2Modo0/PTWU2O86FbysXGMKrmD6eG8eZw19IrRgPZUQk1pJ7jBYgeNc
B2VGsgJ2MmwuLHkM99nBT1rkIFMI12h5NqhZ4s56j1AyIKe2arozVba9puiRwzax
O6sf7tfU1N0omFPVGPdE3ejdYYggOZ4cU6tskit8CGqPmIudM6wSsca6e0VXoJ2b
DEahIuE=
-----END CERTIFICATE-----
