Certificate:
    Data:
        Version: 3 (0x2)
        Serial Number: 0 (0x0)
        Signature Algorithm: sha256WithRSAEncryption
        Issuer: C=US, ST=MD, O=Cisco, OU=Talos, CN=ClamAV TEST Intermediate Signing CA
        Validity
            Not Before: Mar 26 17:56:33 2025 GMT
            Not After : Mar 24 17:56:33 2035 GMT
        Subject: C=US, ST=MD, O=Cisco, OU=Talos, CN=ClamAV TEST CVD Signing Cert
        Subject Public Key Info:
            Public Key Algorithm: rsaEncryption
                RSA Public-Key: (4096 bit)
                Modulus:
                    00:bf:ea:90:5a:0d:4c:d4:5a:05:82:5b:8b:2e:5c:
                    14:e2:af:17:a7:f5:9c:f2:c3:be:4f:41:71:cc:25:
                    fb:02:98:fb:8b:7f:b1:fd:14:e2:32:db:23:88:4e:
                    4c:ad:ff:f0:98:2f:cc:63:e1:10:f9:9e:16:4d:0c:
                    37:74:56:f8:fa:c5:0c:6b:2d:a7:5b:ed:d8:5d:44:
                    c5:ca:34:01:30:10:d0:dd:a3:44:e9:a3:32:d2:cc:
                    48:fb:45:7d:01:85:61:aa:92:df:5e:12:17:e3:4b:
                    eb:33:80:48:fd:b3:74:76:33:3d:d9:a7:3f:7c:7a:
                    49:1f:b9:77:80:72:49:67:87:a6:01:3c:20:4b:7f:
                    58:67:61:c4:44:a9:17:8e:e7:59:04:f6:a8:de:fb:
                    49:93:24:4d:10:66:70:cd:c7:98:f4:e8:98:80:96:
                    34:89:4c:a4:11:a2:ec:9a:05:0d:72:0d:8c:33:05:
                    00:19:ff:fc:b3:a0:87:57:2e:df:24:c0:f4:33:3b:
                    83:98:1b:fc:f0:9d:37:2d:4d:8a:a5:f5:af:93:9b:
                    a7:23:55:26:11:5e:24:ab:72:95:fe:01:5e:c9:87:
                    d2:ac:ac:b8:12:d0:7e:13:57:14:5f:3b:93:31:c3:
                    a3:ef:18:25:76:cd:d0:4f:9b:a2:b5:3a:7c:59:3d:
                    97:a4:bb:71:8d:6a:fd:eb:5a:da:7c:f6:9d:f2:63:
                    4c:8d:16:37:5f:c3:ed:c3:de:6e:18:45:f3:eb:d4:
                    57:aa:27:8c:4c:fd:66:73:cd:2f:c4:70:22:ae:27:
                    c7:8a:e8:0c:ff:11:66:2b:16:6a:f1:d7:46:a6:41:
                    c9:98:66:3a:02:01:60:90:87:31:b2:5d:6f:e0:0a:
                    08:65:6b:78:d9:1e:b4:13:4d:a2:f7:89:c6:8e:c9:
                    6d:d7:16:bd:f2:03:c0:33:d7:7e:ad:67:f3:d1:ca:
                    75:e6:7c:44:28:44:1e:2b:a6:2e:0b:d6:37:6d:f4:
                    1b:93:c1:b0:f0:df:ff:f6:25:fc:a0:f7:ad:7c:9f:
                    43:a2:c3:35:cd:f8:e4:61:19:b0:f9:e9:6f:e2:8a:
                    18:d0:b5:2a:86:eb:83:2f:8a:8a:05:e4:ec:ef:1d:
                    42:0c:68:f8:e6:74:f5:f7:8f:0b:94:ed:53:3a:73:
                    8f:19:64:25:54:4d:22:5a:2f:b1:c6:30:f7:2e:68:
                    ca:aa:42:e5:d8:43:2e:f2:44:f3:ae:bc:fd:3b:30:
                    28:21:87:0a:b5:15:57:65:99:eb:a3:cf:2d:58:8e:
                    f8:e7:0a:b0:2a:9d:d6:29:a0:21:b6:51:0d:29:f7:
                    7e:01:ea:bd:a7:d1:76:f4:9b:d8:24:5b:63:19:49:
                    2f:19:27
                Exponent: 65537 (0x10001)
        X509v3 extensions:
            X509v3 Basic Constraints: critical
                CA:FALSE
            X509v3 Key Usage: critical
                Digital Signature
            X509v3 Extended Key Usage: critical
                Code Signing, E-mail Protection
            X509v3 Subject Key Identifier: 
                33:FE:76:C8:0A:53:42:DB:61:DC:B7:5E:48:7C:DF:C1:81:C0:16:70
    Signature Algorithm: sha256WithRSAEncryption
         8f:57:26:a0:71:a3:e7:0c:fa:ba:01:a7:86:c4:1b:8d:0a:2c:
         24:38:52:e7:2c:c8:be:33:9a:98:78:55:d8:cb:68:65:0c:bc:
         9c:e8:07:c7:1f:6e:61:64:f3:a8:86:72:e2:a0:35:6c:cb:44:
         86:9c:4b:98:08:e3:0e:ac:bf:ac:31:1b:d7:db:f9:27:2d:72:
         69:0b:f1:47:b9:c5:06:3c:9b:61:1f:ae:db:09:52:13:8b:99:
         e4:dd:cb:14:6b:ac:83:e7:ee:97:9e:81:a7:31:25:85:83:e2:
         7b:01:eb:c9:7e:6f:bf:88:50:8f:a6:07:14:de:e9:13:d6:7b:
         ab:27:7f:94:27:57:74:62:61:03:8e:3a:48:f3:d6:07:74:32:
         b4:e9:e7:d5:a2:96:0c:0b:74:36:a3:fd:7b:33:81:ff:85:18:
         a4:65:f7:4f:60:eb:23:69:eb:68:c1:3b:ad:66:3d:2e:4e:6c:
         8d:04:85:2b:4d:2d:ef:6d:c9:3f:da:cd:2d:cb:99:bf:53:57:
         e0:22:0a:e5:19:6c:76:68:0e:58:ef:e9:ce:61:cf:da:73:61:
         55:e1:19:05:08:3c:b3:d8:5f:1c:69:a3:4d:b8:dc:f5:75:59:
         94:1f:e5:b3:fe:a0:24:65:10:4c:3b:ab:2c:63:65:ff:01:bb:
         ab:83:3b:9e:99:2a:19:39:b5:2a:52:b2:7d:1c:a8:56:f1:c3:
         af:5b:9a:19:2b:ec:f6:71:b0:db:92:f8:54:fb:0d:4f:de:a4:
         8d:3d:18:73:56:34:6f:4a:d3:a8:40:77:30:78:3d:5a:6b:4d:
         9f:12:72:6c:d3:9f:56:22:4c:e8:71:31:e2:30:ec:17:32:87:
         30:e8:68:5f:da:3f:5b:b3:8e:95:c6:31:de:01:f6:d0:0b:0a:
         d3:ae:34:49:cd:d6:d9:95:39:ba:4a:d4:7d:27:34:13:e3:a3:
         24:f2:a4:01:df:2a:b8:47:31:4b:6f:16:da:8f:43:44:af:5f:
         51:15:d7:18:c1:d1:24:19:8d:d3:5c:db:d6:5c:aa:b9:af:4e:
         7d:87:43:a5:33:d2:da:27:5f:59:1e:8d:9a:f0:32:ff:d2:79:
         42:4e:f9:7d:81:be:3c:f7:71:43:d3:ee:cc:95:a7:3c:50:77:
         39:7f:23:dc:05:bb:d4:8e:58:5f:5d:39:05:c6:ea:ac:3a:cf:
         5e:50:33:56:f6:9c:56:c3:bf:f8:c8:2f:56:85:ec:a1:4e:22:
         60:4d:77:de:68:bb:bb:39:cb:af:3b:a8:ed:c1:c9:04:95:65:
         a5:c1:bf:66:0a:4e:00:84:6c:be:e2:94:ba:25:bb:8d:47:f8:
         25:6c:c3:d2:39:d1:9b:f5
-----BEGIN CERTIFICATE-----
MIIFpTCCA42gAwIBAgIBADANBgkqhkiG9w0BAQsFADBoMQswCQYDVQQGEwJVUzEL
MAkGA1UECAwCTUQxDjAMBgNVBAoMBUNpc2NvMQ4wDAYDVQQLDAVUYWxvczEsMCoG
A1UEAwwjQ2xhbUFWIFRFU1QgSW50ZXJtZWRpYXRlIFNpZ25pbmcgQ0EwHhcNMjUw
MzI2MTc1NjMzWhcNMzUwMzI0MTc1NjMzWjBhMQswCQYDVQQGEwJVUzELMAkGA1UE
CAwCTUQxDjAMBgNVBAoMBUNpc2NvMQ4wDAYDVQQLDAVUYWxvczElMCMGA1UEAwwc
Q2xhbUFWIFRFU1QgQ1ZEIFNpZ25pbmcgQ2VydDCCAiIwDQYJKoZIhvcNAQEBBQAD
ggIPADCCAgoCggIBAL/qkFoNTNRaBYJbiy5cFOKvF6f1nPLDvk9Bccwl+wKY+4t/
sf0U4jLbI4hOTK3/8JgvzGPhEPmeFk0MN3RW+PrFDGstp1vt2F1Exco0ATAQ0N2j
ROmjMtLMSPtFfQGFYaqS314SF+NL6zOASP2zdHYzPdmnP3x6SR+5d4BySWeHpgE8
IEt/WGdhxESpF47nWQT2qN77SZMkTRBmcM3HmPTomICWNIlMpBGi7JoFDXINjDMF
ABn//LOgh1cu3yTA9DM7g5gb/PCdNy1NiqX1r5ObpyNVJhFeJKtylf4BXsmH0qys
uBLQfhNXFF87kzHDo+8YJXbN0E+borU6fFk9l6S7cY1q/eta2nz2nfJjTI0WN1/D
7cPebhhF8+vUV6onjEz9ZnPNL8RwIq4nx4roDP8RZisWavHXRqZByZhmOgIBYJCH
MbJdb+AKCGVreNketBNNoveJxo7JbdcWvfIDwDPXfq1n89HKdeZ8RChEHiumLgvW
N230G5PBsPDf//Yl/KD3rXyfQ6LDNc345GEZsPnpb+KKGNC1Kobrgy+KigXk7O8d
Qgxo+OZ09fePC5TtUzpzjxlkJVRNIlovscYw9y5oyqpC5dhDLvJE8668/TswKCGH
CrUVV2WZ66PPLViO+OcKsCqd1imgIbZRDSn3fgHqvafRdvSb2CRbYxlJLxknAgMB
AAGjYTBfMAwGA1UdEwEB/wQCMAAwDgYDVR0PAQH/BAQDAgeAMCAGA1UdJQEB/wQW
MBQGCCsGAQUFBwMDBggrBgEFBQcDBDAdBgNVHQ4EFgQUM/52yApTQtth3LdeSHzf
wYHAFnAwDQYJKoZIhvcNAQELBQADggIBAI9XJqBxo+cM+roBp4bEG40KLCQ4Uucs
yL4zmph4VdjLaGUMvJzoB8cfbmFk86iGcuKgNWzLRIacS5gI4w6sv6wxG9fb+Sct
cmkL8Ue5xQY8m2EfrtsJUhOLmeTdyxRrrIPn7peegacxJYWD4nsB68l+b7+IUI+m
BxTe6RPWe6snf5QnV3RiYQOOOkjz1gd0MrTp59WilgwLdDaj/Xszgf+FGKRl909g
6yNp62jBO61mPS5ObI0EhStNLe9tyT/azS3Lmb9TV+AiCuUZbHZoDljv6c5hz9pz
YVXhGQUIPLPYXxxpo0243PV1WZQf5bP+oCRlEEw7qyxjZf8Bu6uDO56ZKhk5tSpS
sn0cqFbxw69bmhkr7PZxsNuS+FT7DU/epI09GHNWNG9K06hAdzB4PVprTZ8ScmzT
n1YiTOhxMeIw7BcyhzDoaF/aP1uzjpXGMd4B9tALCtOuNEnN1tmVObpK1H0nNBPj
oyTypAHfKrhHMUtvFtqPQ0SvX1EV1xjB0SQZjdNc29ZcqrmvTn2HQ6Uz0tonX1ke
jZrwMv/SeUJO+X2Bvjz3cUPT7syVpzxQdzl/I9wFu9SOWF9dOQXG6qw6z15QM1b2
nFbDv/jIL1aF7KFOImBNd95ou7s5y687qO3ByQSVZaXBv2YKTgCEbL7ilLolu41H
+CVsw9I50Zv1
-----END CERTIFICATE-----
