Certificate:
    Data:
        Version: 3 (0x2)
        Serial Number: 0 (0x0)
        Signature Algorithm: sha256WithRSAEncryption
        Issuer: C=US, ST=MD, O=Cisco, OU=Talos, CN=ClamAV TEST Intermediate Signing CA
        Validity
            Not Before: Dec 18 18:57:06 2024 GMT
            Not After : Mar 18 18:57:06 2025 GMT
        Subject: C=US, ST=MD, O=Cisco, OU=Talos, CN=ClamAV TEST CVD Signing Cert
        Subject Public Key Info:
            Public Key Algorithm: rsaEncryption
                RSA Public-Key: (4096 bit)
                Modulus:
                    00:bf:ed:94:a8:df:9f:12:fa:19:d6:d7:2a:fe:52:
                    01:be:64:05:ee:d5:06:12:35:70:64:f5:54:58:55:
                    6a:01:56:1e:a4:44:4d:77:1a:4a:46:ba:0a:5c:b9:
                    d1:b6:c4:b5:36:7c:a1:06:53:48:78:d7:63:55:2a:
                    ef:96:68:32:c0:9b:d6:ca:00:18:c1:0e:02:ec:81:
                    4b:70:19:a7:ca:cb:ce:84:f7:a0:c6:3d:a2:04:ef:
                    b0:cd:50:60:7a:db:65:c0:68:41:41:90:4f:d9:5f:
                    1c:65:a3:61:e7:3e:9a:b2:b1:f0:8e:19:8a:92:1c:
                    5d:69:74:51:03:03:ca:45:7d:51:bc:42:0b:1c:41:
                    a6:bc:0a:0d:b0:c2:1c:ed:7d:f2:fd:a2:df:7c:fa:
                    99:fc:d9:3a:aa:47:be:30:5e:01:87:c2:47:7a:e5:
                    3f:ff:09:05:d2:04:26:41:31:89:a4:7a:d0:b3:92:
                    e9:d2:33:1e:93:f6:68:b2:4e:c8:e2:32:f8:1b:45:
                    53:c7:6a:cd:1d:69:46:7b:59:7d:e7:0b:41:4f:bb:
                    51:0b:7f:8c:98:d3:fb:ef:24:ef:41:e9:51:7c:cc:
                    48:33:78:42:de:30:f5:20:c9:f1:6b:eb:33:9e:9d:
                    11:9c:6d:57:41:8c:14:f3:cc:86:39:fe:04:9d:fc:
                    26:0f:10:e5:cc:cc:14:43:09:c6:b3:96:f7:f3:31:
                    5c:fa:05:86:2e:f7:be:12:f3:52:48:ac:00:b3:a0:
                    76:ac:cf:0a:ef:d5:94:8f:94:9f:d2:06:ce:a5:6f:
                    dc:08:c3:7a:db:02:99:78:75:2a:fe:cd:5c:d8:dc:
                    60:d8:0f:d0:11:dc:eb:80:73:53:9b:15:c0:ac:66:
                    1d:63:c5:a0:67:5d:4f:d8:ad:d3:08:89:7f:b0:89:
                    66:cf:be:ed:07:ba:dd:8e:c4:e3:ab:80:87:b7:ea:
                    db:9c:c3:7e:43:eb:9e:d2:0b:ce:98:4b:3b:d4:7c:
                    37:fc:ed:7b:c9:ff:08:87:b6:a6:bd:08:28:2d:6e:
                    a0:a2:b6:a8:fe:10:ae:27:13:9c:72:7e:43:2c:95:
                    b4:02:8f:cd:92:ba:57:85:e2:a0:0f:39:cd:da:83:
                    f0:d0:1b:eb:11:0a:00:95:89:c3:c1:03:42:dd:7a:
                    88:2e:38:4b:23:6b:82:04:91:48:47:08:89:61:9b:
                    1e:12:51:75:f2:cc:cb:01:62:a8:8b:74:a4:af:17:
                    e2:91:71:b3:3b:cb:1e:b4:31:69:4c:e0:46:2d:b5:
                    fd:e2:9a:55:f8:d7:15:15:13:f0:ba:23:61:d2:f1:
                    d1:27:af:4c:09:da:a1:42:fd:59:66:91:f7:d7:d1:
                    8c:6e:8b
                Exponent: 65537 (0x10001)
        X509v3 extensions:
            X509v3 Basic Constraints: critical
                CA:FALSE
            X509v3 Key Usage: critical
                Digital Signature
            X509v3 Extended Key Usage: critical
                Code Signing, E-mail Protection
            X509v3 Subject Key Identifier: 
                7D:A7:44:98:FC:84:AB:2B:00:5E:73:69:F9:6B:CB:B5:E3:18:2B:EF
    Signature Algorithm: sha256WithRSAEncryption
         0d:43:7b:b8:8d:24:4d:1e:ad:95:9f:79:6c:b4:65:b1:70:ed:
         07:22:40:bb:d2:40:f5:1f:c9:f8:c2:19:51:18:a2:57:6a:a8:
         49:6b:d7:7b:49:22:51:23:ab:6e:99:bd:72:8e:72:64:a6:3d:
         60:92:88:11:cb:d1:2a:52:51:cd:1e:ab:84:c8:23:1d:02:67:
         cc:ce:4a:01:d1:f2:e7:93:da:9b:aa:e6:2d:99:1a:d3:5f:c0:
         88:bd:b1:89:d8:fb:40:df:7a:0a:91:f5:59:f7:b2:0d:5c:e9:
         77:27:f1:70:c2:96:6e:8d:ef:0e:91:06:17:c9:85:c8:8d:70:
         1a:b8:c0:6c:96:c2:2f:01:2d:74:0d:97:32:6e:d3:12:46:61:
         ef:a4:68:a4:43:52:0a:af:60:11:0e:86:32:4d:6d:84:31:da:
         99:f9:75:cc:ec:ac:45:08:b7:de:11:88:d4:33:14:92:8f:05:
         34:9d:8c:d6:2a:f5:b8:b8:53:c6:1b:ab:90:f2:12:93:d8:90:
         a5:03:85:6b:98:c4:07:31:a0:19:88:f7:9a:dc:fc:3d:bb:d0:
         4d:8a:1a:c7:d7:4c:e2:f1:55:c7:2f:08:ae:13:dd:56:ee:68:
         84:c6:35:d7:3c:97:d0:bc:ca:2e:02:49:36:f7:45:19:2e:39:
         76:ef:10:03:70:5b:83:e0:64:36:e3:7e:12:1c:13:4d:6d:fc:
         b6:4c:87:5d:12:40:51:0d:59:2b:0d:fd:03:b5:4e:da:06:fc:
         77:d9:24:de:ec:fd:f4:aa:ba:bc:05:5c:d3:69:43:85:d6:21:
         06:0d:e7:5f:c7:ad:39:7b:ec:47:ce:4e:a1:e5:b8:0d:d4:41:
         bb:ad:f7:f1:17:c3:8b:11:c7:92:aa:38:f5:f3:71:56:76:db:
         f7:a1:f4:ec:cc:fa:2a:90:02:d1:0a:41:2d:a5:37:e9:e1:a0:
         f9:7f:e3:51:da:e9:11:62:b1:33:22:41:71:69:99:96:40:56:
         65:b4:6b:e9:76:7f:64:78:c9:b1:71:86:f9:d2:e6:88:40:01:
         e5:f9:b0:7d:0a:05:a1:f7:42:09:d5:d4:4e:ff:3c:2b:0d:00:
         ce:fc:25:4b:fd:8a:84:ce:c1:d1:82:b4:f9:96:4c:56:c7:01:
         22:a2:92:5d:e2:53:6e:e7:97:5a:58:c6:5d:23:bb:23:b8:56:
         1f:72:ad:97:09:b0:b4:93:2e:00:47:0b:ae:d3:63:a1:62:96:
         7a:2e:2a:95:ff:b8:e6:70:ea:43:12:76:c4:6c:bc:a0:21:e2:
         0c:12:f8:9c:8b:fa:60:55:2a:c2:ce:96:fb:22:bc:2b:4a:fa:
         d0:eb:61:08:c2:da:3e:98
-----BEGIN CERTIFICATE-----
MIIFpTCCA42gAwIBAgIBADANBgkqhkiG9w0BAQsFADBoMQswCQYDVQQGEwJVUzEL
MAkGA1UECAwCTUQxDjAMBgNVBAoMBUNpc2NvMQ4wDAYDVQQLDAVUYWxvczEsMCoG
A1UEAwwjQ2xhbUFWIFRFU1QgSW50ZXJtZWRpYXRlIFNpZ25pbmcgQ0EwHhcNMjQx
MjE4MTg1NzA2WhcNMjUwMzE4MTg1NzA2WjBhMQswCQYDVQQGEwJVUzELMAkGA1UE
CAwCTUQxDjAMBgNVBAoMBUNpc2NvMQ4wDAYDVQQLDAVUYWxvczElMCMGA1UEAwwc
Q2xhbUFWIFRFU1QgQ1ZEIFNpZ25pbmcgQ2VydDCCAiIwDQYJKoZIhvcNAQEBBQAD
ggIPADCCAgoCggIBAL/tlKjfnxL6GdbXKv5SAb5kBe7VBhI1cGT1VFhVagFWHqRE
TXcaSka6Cly50bbEtTZ8oQZTSHjXY1Uq75ZoMsCb1soAGMEOAuyBS3AZp8rLzoT3
oMY9ogTvsM1QYHrbZcBoQUGQT9lfHGWjYec+mrKx8I4ZipIcXWl0UQMDykV9UbxC
CxxBprwKDbDCHO198v2i33z6mfzZOqpHvjBeAYfCR3rlP/8JBdIEJkExiaR60LOS
6dIzHpP2aLJOyOIy+BtFU8dqzR1pRntZfecLQU+7UQt/jJjT++8k70HpUXzMSDN4
Qt4w9SDJ8WvrM56dEZxtV0GMFPPMhjn+BJ38Jg8Q5czMFEMJxrOW9/MxXPoFhi73
vhLzUkisALOgdqzPCu/VlI+Un9IGzqVv3AjDetsCmXh1Kv7NXNjcYNgP0BHc64Bz
U5sVwKxmHWPFoGddT9it0wiJf7CJZs++7Qe63Y7E46uAh7fq25zDfkPrntILzphL
O9R8N/zte8n/CIe2pr0IKC1uoKK2qP4QricTnHJ+QyyVtAKPzZK6V4XioA85zdqD
8NAb6xEKAJWJw8EDQt16iC44SyNrggSRSEcIiWGbHhJRdfLMywFiqIt0pK8X4pFx
szvLHrQxaUzgRi21/eKaVfjXFRUT8LojYdLx0SevTAnaoUL9WWaR99fRjG6LAgMB
AAGjYTBfMAwGA1UdEwEB/wQCMAAwDgYDVR0PAQH/BAQDAgeAMCAGA1UdJQEB/wQW
MBQGCCsGAQUFBwMDBggrBgEFBQcDBDAdBgNVHQ4EFgQUfadEmPyEqysAXnNp+WvL
teMYK+8wDQYJKoZIhvcNAQELBQADggIBAA1De7iNJE0erZWfeWy0ZbFw7QciQLvS
QPUfyfjCGVEYoldqqElr13tJIlEjq26ZvXKOcmSmPWCSiBHL0SpSUc0eq4TIIx0C
Z8zOSgHR8ueT2puq5i2ZGtNfwIi9sYnY+0DfegqR9Vn3sg1c6Xcn8XDClm6N7w6R
BhfJhciNcBq4wGyWwi8BLXQNlzJu0xJGYe+kaKRDUgqvYBEOhjJNbYQx2pn5dczs
rEUIt94RiNQzFJKPBTSdjNYq9bi4U8Ybq5DyEpPYkKUDhWuYxAcxoBmI95rc/D27
0E2KGsfXTOLxVccvCK4T3VbuaITGNdc8l9C8yi4CSTb3RRkuOXbvEANwW4PgZDbj
fhIcE01t/LZMh10SQFENWSsN/QO1TtoG/HfZJN7s/fSqurwFXNNpQ4XWIQYN51/H
rTl77EfOTqHluA3UQbut9/EXw4sRx5KqOPXzcVZ22/eh9OzM+iqQAtEKQS2lN+nh
oPl/41Ha6RFisTMiQXFpmZZAVmW0a+l2f2R4ybFxhvnS5ohAAeX5sH0KBaH3QgnV
1E7/PCsNAM78JUv9ioTOwdGCtPmWTFbHASKikl3iU27nl1pYxl0juyO4Vh9yrZcJ
sLSTLgBHC67TY6FilnouKpX/uOZw6kMSdsRsvKAh4gwS+JyL+mBVKsLOlvsivCtK
+tDrYQjC2j6Y
-----END CERTIFICATE-----
Certificate:
    Data:
        Version: 3 (0x2)
        Serial Number: 0 (0x0)
        Signature Algorithm: sha256WithRSAEncryption
        Issuer: C=US, ST=MD, L=Laurel, O=Cisco, OU=Talos, CN=ClamAV TEST Root CA
        Validity
            Not Before: Dec 18 18:57:05 2024 GMT
            Not After : Dec 18 18:57:05 2025 GMT
        Subject: C=US, ST=MD, O=Cisco, OU=Talos, CN=ClamAV TEST Intermediate Signing CA
        Subject Public Key Info:
            Public Key Algorithm: rsaEncryption
                RSA Public-Key: (4096 bit)
                Modulus:
                    00:c8:90:9e:95:83:89:83:27:c9:c6:c3:8f:df:67:
                    c1:bc:15:9c:5e:05:4d:d0:fa:86:89:5a:b7:6a:d9:
                    ff:f4:4b:36:7f:b2:43:89:64:a2:67:fc:94:fb:2f:
                    42:d3:b9:77:92:92:13:04:cb:2a:89:ee:c4:89:5e:
                    cd:de:43:08:df:5a:2a:02:f4:fd:cf:ec:24:87:94:
                    5a:da:44:fe:1a:32:09:a8:97:50:aa:b8:a0:ea:29:
                    39:69:7a:c0:87:4b:82:48:c0:5c:10:8a:74:79:bc:
                    ad:42:e8:7b:ce:30:92:72:37:1c:4f:bd:c7:b3:32:
                    1d:e0:99:2e:d5:f2:71:77:15:4f:c2:41:41:4a:e5:
                    48:89:53:53:0e:d2:f2:4d:20:9c:c2:8b:7b:a3:b5:
                    d8:70:22:24:34:ef:f0:3f:73:aa:04:7c:c4:d7:8b:
                    04:75:09:74:8b:6b:a9:7e:d4:aa:9c:16:4a:91:df:
                    1c:b2:ef:78:7b:f8:36:63:87:f9:e9:75:46:21:b5:
                    2f:44:52:7f:76:9a:71:74:4b:0d:a4:e2:e8:8b:cb:
                    65:b4:65:07:e6:b6:73:38:9d:5f:1d:98:f5:31:0b:
                    bd:52:87:bb:39:ff:95:4a:85:68:9e:c2:70:b1:03:
                    1c:b6:3c:b1:c5:cb:83:53:67:bb:ab:e2:c3:e6:bd:
                    3f:62:d5:fa:ea:65:2a:5e:88:b4:3a:9b:ac:87:91:
                    52:e0:81:3b:e4:44:0c:83:01:08:76:ae:f2:f9:0e:
                    3b:43:15:fe:57:20:75:a5:bc:99:d3:d8:96:af:f6:
                    83:a1:cd:79:1c:4a:72:c3:03:20:71:f5:9c:c4:bc:
                    c4:0f:44:7b:04:fb:f0:be:21:06:a2:3d:0f:9d:d1:
                    22:c9:c2:9f:fc:40:1c:d6:72:99:10:d8:cc:0a:31:
                    20:77:33:2e:44:d8:f9:b5:be:c1:f1:54:93:8a:06:
                    6c:68:94:e2:7c:7e:d8:07:39:ac:e7:cc:f8:41:b8:
                    78:37:a1:b5:29:3a:33:67:27:79:71:07:5e:f2:45:
                    b9:b8:44:4a:b9:ff:3d:9d:b1:43:27:ba:dc:d2:95:
                    4d:dd:c4:28:a9:fd:c4:7f:84:72:98:19:22:8d:15:
                    03:d8:67:44:db:cd:a7:44:38:1b:83:ba:96:16:f5:
                    e1:24:d4:de:8f:e0:2a:d4:e4:06:08:cb:b9:02:5e:
                    0f:74:4d:d9:af:9e:26:55:65:00:90:1d:4a:ad:1d:
                    b0:16:37:a5:d9:45:59:7f:52:a9:ac:38:5c:80:2b:
                    63:11:e7:ce:8b:c8:1b:0b:5e:36:a0:b7:80:8e:9e:
                    c8:39:d1:79:30:08:f1:84:a2:e2:34:cb:9a:8c:1b:
                    71:a8:6b
                Exponent: 65537 (0x10001)
        X509v3 extensions:
            X509v3 Basic Constraints: critical
                CA:TRUE
            X509v3 Key Usage: critical
                Certificate Sign, CRL Sign
            X509v3 Extended Key Usage: 
                OCSP Signing, E-mail Protection
            Netscape Cert Type: 
                SSL CA
    Signature Algorithm: sha256WithRSAEncryption
         5a:3d:ba:cb:d1:72:13:d9:0d:5f:72:b0:e3:3e:1e:1d:a8:16:
         73:16:31:79:83:40:43:78:67:61:62:43:5a:d4:e0:9b:c7:41:
         0c:17:14:77:5f:e2:e1:78:f5:ec:41:92:0d:bb:a9:1e:0e:e3:
         3e:31:e7:fa:4f:be:c1:2a:f2:2f:c4:0c:08:94:96:2d:ef:69:
         e1:30:20:67:6c:f5:b8:90:06:84:94:43:9a:ff:72:b3:4b:84:
         0d:e6:6b:a7:03:75:04:8a:b7:07:32:6b:0e:27:1b:08:b9:d5:
         0f:89:62:dd:b5:a3:d2:4d:a5:66:8e:7b:82:8d:57:b7:35:6e:
         12:ad:11:c5:37:18:44:dd:cc:e4:73:71:c3:08:0e:9c:f8:b9:
         59:8a:35:27:ef:28:d0:85:46:95:42:85:82:6c:5c:19:bb:78:
         9f:27:4e:9a:9d:19:62:79:1d:f4:97:30:49:81:cc:d3:03:38:
         b6:bc:6b:ea:83:03:19:31:32:66:71:b6:21:87:3c:98:c4:3e:
         b3:4b:04:ea:bf:4e:87:e7:77:9c:2c:de:d9:f8:17:1c:13:af:
         d1:76:4f:92:4e:25:fd:55:57:3b:21:3f:ee:c4:8b:96:99:10:
         7a:66:cb:fc:0b:7b:ec:0e:fe:37:4a:6d:5c:89:68:fd:d3:86:
         a7:68:0c:f6:03:2f:8b:10:52:a3:69:2d:21:0b:38:09:28:87:
         70:0c:31:29:81:f7:82:53:2a:9f:ae:38:16:db:53:0c:df:6a:
         0e:b8:c8:71:a4:e9:08:29:6a:c8:eb:74:bf:43:7e:68:9c:96:
         4b:d6:d0:14:80:6a:a2:67:48:53:43:55:a1:57:74:22:f9:b1:
         65:e0:35:5a:8d:f9:16:5e:b3:c4:c0:78:22:0f:55:e1:e9:a0:
         3b:85:82:4b:10:44:18:05:cf:44:5b:12:b5:ac:3c:0b:84:dc:
         82:a6:9e:58:7d:c5:6d:40:e5:26:40:07:42:c9:0f:55:ae:c4:
         d5:dc:66:da:41:72:3b:5a:cd:c4:99:7d:b6:d8:95:7c:5a:18:
         99:cb:bb:10:d7:6f:ea:1e:9d:9e:c1:17:b2:51:b1:23:8a:c5:
         de:bf:16:69:8b:f7:9c:a6:b7:a9:1f:0e:46:f4:f7:bf:b5:05:
         f1:3d:0d:06:82:ba:d5:bf:41:19:8d:13:3b:29:37:19:cf:66:
         aa:df:37:31:a6:f8:5f:f1:e7:48:02:ca:10:9f:08:88:ee:df:
         59:7e:84:6b:e7:2f:82:fa:cd:81:df:04:03:7a:43:b9:98:26:
         01:5a:29:a2:28:38:2c:24:53:13:48:b4:87:d3:10:2d:ef:a1:
         83:eb:ec:88:c9:e7:86:c5
-----BEGIN CERTIFICATE-----
MIIFoTCCA4mgAwIBAgIBADANBgkqhkiG9w0BAQsFADBpMQswCQYDVQQGEwJVUzEL
MAkGA1UECAwCTUQxDzANBgNVBAcMBkxhdXJlbDEOMAwGA1UECgwFQ2lzY28xDjAM
BgNVBAsMBVRhbG9zMRwwGgYDVQQDDBNDbGFtQVYgVEVTVCBSb290IENBMB4XDTI0
MTIxODE4NTcwNVoXDTI1MTIxODE4NTcwNVowaDELMAkGA1UEBhMCVVMxCzAJBgNV
BAgMAk1EMQ4wDAYDVQQKDAVDaXNjbzEOMAwGA1UECwwFVGFsb3MxLDAqBgNVBAMM
I0NsYW1BViBURVNUIEludGVybWVkaWF0ZSBTaWduaW5nIENBMIICIjANBgkqhkiG
9w0BAQEFAAOCAg8AMIICCgKCAgEAyJCelYOJgyfJxsOP32fBvBWcXgVN0PqGiVq3
atn/9Es2f7JDiWSiZ/yU+y9C07l3kpITBMsqie7EiV7N3kMI31oqAvT9z+wkh5Ra
2kT+GjIJqJdQqrig6ik5aXrAh0uCSMBcEIp0ebytQuh7zjCScjccT73HszId4Jku
1fJxdxVPwkFBSuVIiVNTDtLyTSCcwot7o7XYcCIkNO/wP3OqBHzE14sEdQl0i2up
ftSqnBZKkd8csu94e/g2Y4f56XVGIbUvRFJ/dppxdEsNpOLoi8tltGUH5rZzOJ1f
HZj1MQu9Uoe7Of+VSoVonsJwsQMctjyxxcuDU2e7q+LD5r0/YtX66mUqXoi0Opus
h5FS4IE75EQMgwEIdq7y+Q47QxX+VyB1pbyZ09iWr/aDoc15HEpywwMgcfWcxLzE
D0R7BPvwviEGoj0PndEiycKf/EAc1nKZENjMCjEgdzMuRNj5tb7B8VSTigZsaJTi
fH7YBzms58z4Qbh4N6G1KTozZyd5cQde8kW5uERKuf89nbFDJ7rc0pVN3cQoqf3E
f4RymBkijRUD2GdE282nRDgbg7qWFvXhJNTej+Aq1OQGCMu5Al4PdE3Zr54mVWUA
kB1KrR2wFjel2UVZf1KprDhcgCtjEefOi8gbC142oLeAjp7IOdF5MAjxhKLiNMua
jBtxqGsCAwEAAaNVMFMwDwYDVR0TAQH/BAUwAwEB/zAOBgNVHQ8BAf8EBAMCAQYw
HQYDVR0lBBYwFAYIKwYBBQUHAwkGCCsGAQUFBwMEMBEGCWCGSAGG+EIBAQQEAwIC
BDANBgkqhkiG9w0BAQsFAAOCAgEAWj26y9FyE9kNX3Kw4z4eHagWcxYxeYNAQ3hn
YWJDWtTgm8dBDBcUd1/i4Xj17EGSDbupHg7jPjHn+k++wSryL8QMCJSWLe9p4TAg
Z2z1uJAGhJRDmv9ys0uEDeZrpwN1BIq3BzJrDicbCLnVD4li3bWj0k2lZo57go1X
tzVuEq0RxTcYRN3M5HNxwwgOnPi5WYo1J+8o0IVGlUKFgmxcGbt4nydOmp0ZYnkd
9JcwSYHM0wM4trxr6oMDGTEyZnG2IYc8mMQ+s0sE6r9Oh+d3nCze2fgXHBOv0XZP
kk4l/VVXOyE/7sSLlpkQembL/At77A7+N0ptXIlo/dOGp2gM9gMvixBSo2ktIQs4
CSiHcAwxKYH3glMqn644FttTDN9qDrjIcaTpCClqyOt0v0N+aJyWS9bQFIBqomdI
U0NVoVd0IvmxZeA1Wo35Fl6zxMB4Ig9V4emgO4WCSxBEGAXPRFsStaw8C4Tcgqae
WH3FbUDlJkAHQskPVa7E1dxm2kFyO1rNxJl9ttiVfFoYmcu7ENdv6h6dnsEXslGx
I4rF3r8WaYv3nKa3qR8ORvT3v7UF8T0NBoK61b9BGY0TOyk3Gc9mqt83Mab4X/Hn
SALKEJ8IiO7fWX6Ea+cvgvrNgd8EA3pDuZgmAVopoig4LCRTE0i0h9MQLe+hg+vs
iMnnhsU=
-----END CERTIFICATE-----
